; Function Attrs: nofree norecurse nosync nounwind memory(read, inaccessiblemem: none) uwtable
define range(i32 0, 2) i32 @Gia_ManBuiltInSimCheckOver(ptr noundef readonly captures(none) %0, i32 noundef %1, i32 noundef %2) local_unnamed_addr #13 {
  %4 = ashr i32 %1, 1
  %5 = getelementptr i8, ptr %0, i64 816
  %.val43 = load i32, ptr %5, align 8, !tbaa !114
  %6 = getelementptr i8, ptr %0, i64 832
  %.val44 = load ptr, ptr %6, align 8, !tbaa !123
  %7 = getelementptr i8, ptr %.val44, i64 8
  %.val44.val = load ptr, ptr %7, align 8, !tbaa !119
  %8 = mul nsw i32 %.val43, %4
  %9 = sext i32 %8 to i64
  %10 = getelementptr inbounds i64, ptr %.val44.val, i64 %9
  %11 = ashr i32 %2, 1
  %12 = mul nsw i32 %.val43, %11
  %13 = sext i32 %12 to i64
  %14 = getelementptr inbounds i64, ptr %.val44.val, i64 %13
  %15 = and i32 %1, 1
  %.not = icmp eq i32 %15, 0
  %16 = and i32 %2, 1
  %.not36 = icmp eq i32 %16, 0
  %17 = icmp sgt i32 %.val43, 0
  br i1 %.not, label %31, label %18

18:                                               ; preds = %3
  br i1 %.not36, label %.preheader48, label %.preheader51

.preheader51:                                     ; preds = %18
  br i1 %17, label %.lr.ph.preheader, label %.loopexit

.lr.ph.preheader:                                 ; preds = %.preheader51
  %wide.trip.count = zext nneg i32 %.val43 to i64
  br label %.lr.ph

.preheader48:                                     ; preds = %18
  br i1 %17, label %.lr.ph58.preheader, label %.loopexit

.lr.ph58.preheader:                               ; preds = %.preheader48
  %wide.trip.count82 = zext nneg i32 %.val43 to i64
  br label %.lr.ph58

19:                                               ; preds = %.lr.ph
  %indvars.iv.next = add nuw nsw i64 %indvars.iv, 1
  %exitcond.not = icmp eq i64 %indvars.iv.next, %wide.trip.count
  br i1 %exitcond.not, label %.loopexit, label %.lr.ph, !llvm.loop !135

.lr.ph:                                           ; preds = %.lr.ph.preheader, %19
  %indvars.iv = phi i64 [ 0, %.lr.ph.preheader ], [ %indvars.iv.next, %19 ]
  %20 = getelementptr inbounds nuw i64, ptr %10, i64 %indvars.iv
  %21 = load i64, ptr %20, align 8, !tbaa !121
  %22 = getelementptr inbounds nuw i64, ptr %14, i64 %indvars.iv
  %23 = load i64, ptr %22, align 8, !tbaa !121
  %.demorgan = or i64 %23, %21
  %.not41 = icmp eq i64 %.demorgan, -1
  br i1 %.not41, label %19, label %.loopexit

24:                                               ; preds = %.lr.ph58
  %indvars.iv.next80 = add nuw nsw i64 %indvars.iv79, 1
  %exitcond83.not = icmp eq i64 %indvars.iv.next80, %wide.trip.count82
  br i1 %exitcond83.not, label %.loopexit, label %.lr.ph58, !llvm.loop !136

.lr.ph58:                                         ; preds = %.lr.ph58.preheader, %24
  %indvars.iv79 = phi i64 [ 0, %.lr.ph58.preheader ], [ %indvars.iv.next80, %24 ]
  %25 = getelementptr inbounds nuw i64, ptr %10, i64 %indvars.iv79
  %26 = load i64, ptr %25, align 8, !tbaa !121
  %27 = xor i64 %26, -1
  %28 = getelementptr inbounds nuw i64, ptr %14, i64 %indvars.iv79
  %29 = load i64, ptr %28, align 8, !tbaa !121
  %30 = and i64 %29, %27
  %.not40 = icmp eq i64 %30, 0
  br i1 %.not40, label %24, label %.loopexit

31:                                               ; preds = %3
  br i1 %.not36, label %.preheader, label %.preheader45

.preheader45:                                     ; preds = %31
  br i1 %17, label %.lr.ph63.preheader, label %.loopexit

.lr.ph63.preheader:                               ; preds = %.preheader45
  %wide.trip.count87 = zext nneg i32 %.val43 to i64
  br label %.lr.ph63

.preheader:                                       ; preds = %31
  br i1 %17, label %.lr.ph68.preheader, label %.loopexit

.lr.ph68.preheader:                               ; preds = %.preheader
  %wide.trip.count92 = zext nneg i32 %.val43 to i64
  br label %.lr.ph68

32:                                               ; preds = %.lr.ph63
  %indvars.iv.next85 = add nuw nsw i64 %indvars.iv84, 1
  %exitcond88.not = icmp eq i64 %indvars.iv.next85, %wide.trip.count87
  br i1 %exitcond88.not, label %.loopexit, label %.lr.ph63, !llvm.loop !137

.lr.ph63:                                         ; preds = %.lr.ph63.preheader, %32
  %indvars.iv84 = phi i64 [ 0, %.lr.ph63.preheader ], [ %indvars.iv.next85, %32 ]
  %33 = getelementptr inbounds nuw i64, ptr %10, i64 %indvars.iv84
  %34 = load i64, ptr %33, align 8, !tbaa !121
  %35 = getelementptr inbounds nuw i64, ptr %14, i64 %indvars.iv84
  %36 = load i64, ptr %35, align 8, !tbaa !121
  %37 = xor i64 %36, -1
  %38 = and i64 %34, %37
  %.not38 = icmp eq i64 %38, 0
  br i1 %.not38, label %32, label %.loopexit

39:                                               ; preds = %.lr.ph68
  %indvars.iv.next90 = add nuw nsw i64 %indvars.iv89, 1
  %exitcond93.not = icmp eq i64 %indvars.iv.next90, %wide.trip.count92
  br i1 %exitcond93.not, label %.loopexit, label %.lr.ph68, !llvm.loop !138

.lr.ph68:                                         ; preds = %.lr.ph68.preheader, %39
  %indvars.iv89 = phi i64 [ 0, %.lr.ph68.preheader ], [ %indvars.iv.next90, %39 ]
  %40 = getelementptr inbounds nuw i64, ptr %10, i64 %indvars.iv89
  %41 = load i64, ptr %40, align 8, !tbaa !121
  %42 = getelementptr inbounds nuw i64, ptr %14, i64 %indvars.iv89
  %43 = load i64, ptr %42, align 8, !tbaa !121
  %44 = and i64 %43, %41
  %.not37 = icmp eq i64 %44, 0
  br i1 %.not37, label %39, label %.loopexit

.loopexit:                                        ; preds = %.lr.ph, %19, %.lr.ph58, %24, %.lr.ph63, %32, %.lr.ph68, %39, %.preheader51, %.preheader48, %.preheader45, %.preheader
  %.035 = phi i32 [ 0, %.preheader ], [ 0, %.preheader45 ], [ 0, %.preheader48 ], [ 0, %.preheader51 ], [ 1, %.lr.ph68 ], [ 0, %39 ], [ 1, %.lr.ph63 ], [ 0, %32 ], [ 1, %.lr.ph58 ], [ 0, %24 ], [ 1, %.lr.ph ], [ 0, %19 ]
  ret i32 %.035
}